target datalayout = "e-m:e-p270:32:32-p271:32:32-p272:64:64-i64:64-i128:128-f80:128-n8:16:32:64-S128"
target triple = "x86_64-pc-linux-gnu"

%struct.H5T_t = type { %struct.H5O_shared_t, ptr, %struct.H5O_loc_t, %struct.H5G_name_t, ptr }
%struct.H5O_shared_t = type { i32, ptr, i32, %union.anon }
%union.anon = type { %struct.H5O_mesg_loc_t }
%struct.H5O_mesg_loc_t = type { i32, i64 }
%struct.H5O_loc_t = type { ptr, i64, i8 }
%struct.H5G_name_t = type { ptr, ptr, i32 }
%struct.H5T_shared_t = type { i64, i32, i32, i64, i32, i8, ptr, ptr, %union.anon.0 }
%union.anon.0 = type { %struct.H5T_array_t }
%struct.H5T_array_t = type { i64, i32, [32 x i64] }
%struct.H5T_vlen_t = type { i32, i32, i32, i32, ptr, ptr }

@H5_libterm_g = external global i8, align 1
@.str = private unnamed_addr constant [101 x i8] c"generated/home/dtcxzyw/WorkSpace/Projects/compilers/llvm-opt-benchmark/bench/hdf5/hdf5/src/H5Tvlen.c\00", align 1
@H5E_CANTINIT_g = external global i64, align 8
@H5T_init_g = external global i8, align 1
@H5E_DATATYPE_g = external global i64, align 8
@__func__.H5T__vlen_create = private unnamed_addr constant [17 x i8] c"H5T__vlen_create\00", align 1
@H5E_CANTALLOC_g = external global i64, align 8
@.str.7 = private unnamed_addr constant [25 x i8] c"memory allocation failed\00", align 1
@H5E_CANTCOPY_g = external global i64, align 8
@.str.8 = private unnamed_addr constant [25 x i8] c"can't copy base datatype\00", align 1
@.str.9 = private unnamed_addr constant [26 x i8] c"invalid datatype location\00", align 1
@H5E_CANTRELEASE_g = external global i64, align 8
@.str.10 = private unnamed_addr constant [32 x i8] c"unable to release datatype info\00", align 1

; Function Attrs: nounwind uwtable
define ptr @H5T__vlen_create(ptr noundef %0) #0 {
  %2 = alloca ptr, align 8
  %3 = alloca ptr, align 8
  %4 = alloca ptr, align 8
  %5 = alloca i8, align 1
  store ptr %0, ptr %2, align 8, !tbaa !7
  call void @llvm.lifetime.start.p0(i64 8, ptr %3) #9
  store ptr null, ptr %3, align 8, !tbaa !7
  call void @llvm.lifetime.start.p0(i64 8, ptr %4) #9
  store ptr null, ptr %4, align 8, !tbaa !7
  call void @llvm.lifetime.start.p0(i64 1, ptr %5) #9
  store i8 0, ptr %5, align 1, !tbaa !10
  %6 = load i8, ptr @H5T_init_g, align 1, !tbaa !10, !range !12, !noundef !13
  %7 = trunc i8 %6 to i1
  br i1 %7, label %12, label %8

8:                                                ; preds = %1
  %9 = load i8, ptr @H5_libterm_g, align 1, !tbaa !10, !range !12, !noundef !13
  %10 = trunc i8 %9 to i1
  %11 = xor i1 %10, true
  br label %12

12:                                               ; preds = %8, %1
  %13 = phi i1 [ true, %1 ], [ %11, %8 ]
  %14 = xor i1 %13, true
  %15 = xor i1 %14, true
  %16 = zext i1 %15 to i32
  %17 = sext i32 %16 to i64
  %18 = call i64 @llvm.expect.i64(i64 %17, i64 1)
  %19 = icmp ne i64 %18, 0
  br i1 %19, label %20, label %144

20:                                               ; preds = %12
  %21 = call ptr @H5T__alloc()
  store ptr %21, ptr %3, align 8, !tbaa !7
  %22 = icmp eq ptr null, %21
  br i1 %22, label %23, label %42

23:                                               ; preds = %20
  br label %24

24:                                               ; preds = %23
  br label %25

25:                                               ; preds = %24
  br label %26

26:                                               ; preds = %25
  %27 = load i64, ptr @H5E_DATATYPE_g, align 8, !tbaa !3
  %28 = load i64, ptr @H5E_CANTALLOC_g, align 8, !tbaa !3
  %29 = call i32 (ptr, ptr, i32, i64, i64, ptr, ...) @H5E_printf_stack(ptr noundef @.str, ptr noundef @__func__.H5T__vlen_create, i32 noundef 187, i64 noundef %27, i64 noundef %28, ptr noundef @.str.7)
  br label %30

30:                                               ; preds = %26
  br label %31

31:                                               ; preds = %30
  store i8 1, ptr %5, align 1, !tbaa !10
  %32 = load i8, ptr %5, align 1, !tbaa !10, !range !12, !noundef !13
  %33 = trunc i8 %32 to i1
  %34 = zext i1 %33 to i8
  store i8 %34, ptr %5, align 1, !tbaa !10
  br label %35

35:                                               ; preds = %31
  br label %36

36:                                               ; preds = %35
  br label %37

37:                                               ; preds = %36
  store ptr null, ptr %4, align 8, !tbaa !7
  br label %116

38:                                               ; No predecessors!
  br label %39

39:                                               ; preds = %38
  br label %40

40:                                               ; preds = %39
  br label %41

41:                                               ; preds = %40
  br label %42

42:                                               ; preds = %41, %20
  %43 = load ptr, ptr %3, align 8, !tbaa !7
  %44 = getelementptr inbounds nuw %struct.H5T_t, ptr %43, i32 0, i32 1
  %45 = load ptr, ptr %44, align 8, !tbaa !14
  %46 = getelementptr inbounds nuw %struct.H5T_shared_t, ptr %45, i32 0, i32 2
  store i32 9, ptr %46, align 4, !tbaa !24
  %47 = load ptr, ptr %3, align 8, !tbaa !7
  %48 = getelementptr inbounds nuw %struct.H5T_t, ptr %47, i32 0, i32 1
  %49 = load ptr, ptr %48, align 8, !tbaa !14
  %50 = getelementptr inbounds nuw %struct.H5T_shared_t, ptr %49, i32 0, i32 5
  store i8 1, ptr %50, align 4, !tbaa !26
  %51 = load ptr, ptr %2, align 8, !tbaa !7
  %52 = call ptr @H5T_copy(ptr noundef %51, i32 noundef 1)
  %53 = load ptr, ptr %3, align 8, !tbaa !7
  %54 = getelementptr inbounds nuw %struct.H5T_t, ptr %53, i32 0, i32 1
  %55 = load ptr, ptr %54, align 8, !tbaa !14
  %56 = getelementptr inbounds nuw %struct.H5T_shared_t, ptr %55, i32 0, i32 6
  store ptr %52, ptr %56, align 8, !tbaa !27
  %57 = icmp eq ptr null, %52
  br i1 %57, label %58, label %77

58:                                               ; preds = %42
  br label %59

59:                                               ; preds = %58
  br label %60

60:                                               ; preds = %59
  br label %61

61:                                               ; preds = %60
  %62 = load i64, ptr @H5E_DATATYPE_g, align 8, !tbaa !3
  %63 = load i64, ptr @H5E_CANTCOPY_g, align 8, !tbaa !3
  %64 = call i32 (ptr, ptr, i32, i64, i64, ptr, ...) @H5E_printf_stack(ptr noundef @.str, ptr noundef @__func__.H5T__vlen_create, i32 noundef 196, i64 noundef %62, i64 noundef %63, ptr noundef @.str.8)
  br label %65

65:                                               ; preds = %61
  br label %66

66:                                               ; preds = %65
  store i8 1, ptr %5, align 1, !tbaa !10
  %67 = load i8, ptr %5, align 1, !tbaa !10, !range !12, !noundef !13
  %68 = trunc i8 %67 to i1
  %69 = zext i1 %68 to i8
  store i8 %69, ptr %5, align 1, !tbaa !10
  br label %70

70:                                               ; preds = %66
  br label %71

71:                                               ; preds = %70
  br label %72

72:                                               ; preds = %71
  store ptr null, ptr %4, align 8, !tbaa !7
  br label %116

73:                                               ; No predecessors!
  br label %74

74:                                               ; preds = %73
  br label %75

75:                                               ; preds = %74
  br label %76

76:                                               ; preds = %75
  br label %77

77:                                               ; preds = %76, %42
  %78 = load ptr, ptr %2, align 8, !tbaa !7
  %79 = getelementptr inbounds nuw %struct.H5T_t, ptr %78, i32 0, i32 1
  %80 = load ptr, ptr %79, align 8, !tbaa !14
  %81 = getelementptr inbounds nuw %struct.H5T_shared_t, ptr %80, i32 0, i32 4
  %82 = load i32, ptr %81, align 8, !tbaa !28
  %83 = load ptr, ptr %3, align 8, !tbaa !7
  %84 = getelementptr inbounds nuw %struct.H5T_t, ptr %83, i32 0, i32 1
  %85 = load ptr, ptr %84, align 8, !tbaa !14
  %86 = getelementptr inbounds nuw %struct.H5T_shared_t, ptr %85, i32 0, i32 4
  store i32 %82, ptr %86, align 8, !tbaa !28
  %87 = load ptr, ptr %3, align 8, !tbaa !7
  %88 = getelementptr inbounds nuw %struct.H5T_t, ptr %87, i32 0, i32 1
  %89 = load ptr, ptr %88, align 8, !tbaa !14
  %90 = getelementptr inbounds nuw %struct.H5T_shared_t, ptr %89, i32 0, i32 8
  %91 = getelementptr inbounds nuw %struct.H5T_vlen_t, ptr %90, i32 0, i32 0
  store i32 0, ptr %91, align 8, !tbaa !29
  %92 = load ptr, ptr %3, align 8, !tbaa !7
  %93 = call i32 @H5T_set_loc(ptr noundef %92, ptr noundef null, i32 noundef 1)
  %94 = icmp slt i32 %93, 0
  br i1 %94, label %95, label %114

95:                                               ; preds = %77
  br label %96

96:                                               ; preds = %95
  br label %97

97:                                               ; preds = %96
  br label %98

98:                                               ; preds = %97
  %99 = load i64, ptr @H5E_DATATYPE_g, align 8, !tbaa !3
  %100 = load i64, ptr @H5E_CANTINIT_g, align 8, !tbaa !3
  %101 = call i32 (ptr, ptr, i32, i64, i64, ptr, ...) @H5E_printf_stack(ptr noundef @.str, ptr noundef @__func__.H5T__vlen_create, i32 noundef 206, i64 noundef %99, i64 noundef %100, ptr noundef @.str.9)
  br label %102

102:                                              ; preds = %98
  br label %103

103:                                              ; preds = %102
  store i8 1, ptr %5, align 1, !tbaa !10
  %104 = load i8, ptr %5, align 1, !tbaa !10, !range !12, !noundef !13
  %105 = trunc i8 %104 to i1
  %106 = zext i1 %105 to i8
  store i8 %106, ptr %5, align 1, !tbaa !10
  br label %107

107:                                              ; preds = %103
  br label %108

108:                                              ; preds = %107
  br label %109

109:                                              ; preds = %108
  store ptr null, ptr %4, align 8, !tbaa !7
  br label %116

110:                                              ; No predecessors!
  br label %111

111:                                              ; preds = %110
  br label %112

112:                                              ; preds = %111
  br label %113

113:                                              ; preds = %112
  br label %114

114:                                              ; preds = %113, %77
  %115 = load ptr, ptr %3, align 8, !tbaa !7
  store ptr %115, ptr %4, align 8, !tbaa !7
  br label %116

116:                                              ; preds = %114, %109, %72, %37
  %117 = load ptr, ptr %4, align 8, !tbaa !7
  %118 = icmp ne ptr %117, null
  br i1 %118, label %143, label %119

119:                                              ; preds = %116
  %120 = load ptr, ptr %3, align 8, !tbaa !7
  %121 = icmp ne ptr %120, null
  br i1 %121, label %122, label %142

122:                                              ; preds = %119
  %123 = load ptr, ptr %3, align 8, !tbaa !7
  %124 = call i32 @H5T_close_real(ptr noundef %123)
  %125 = icmp slt i32 %124, 0
  br i1 %125, label %126, label %142

126:                                              ; preds = %122
  br label %127

127:                                              ; preds = %126
  br label %128

128:                                              ; preds = %127
  br label %129

129:                                              ; preds = %128
  %130 = load i64, ptr @H5E_DATATYPE_g, align 8, !tbaa !3
  %131 = load i64, ptr @H5E_CANTRELEASE_g, align 8, !tbaa !3
  %132 = call i32 (ptr, ptr, i32, i64, i64, ptr, ...) @H5E_printf_stack(ptr noundef @.str, ptr noundef @__func__.H5T__vlen_create, i32 noundef 214, i64 noundef %130, i64 noundef %131, ptr noundef @.str.10)
  br label %133

133:                                              ; preds = %129
  br label %134

134:                                              ; preds = %133
  store i8 1, ptr %5, align 1, !tbaa !10
  %135 = load i8, ptr %5, align 1, !tbaa !10, !range !12, !noundef !13
  %136 = trunc i8 %135 to i1
  %137 = zext i1 %136 to i8
  store i8 %137, ptr %5, align 1, !tbaa !10
  br label %138

138:                                              ; preds = %134
  br label %139

139:                                              ; preds = %138
  store ptr null, ptr %4, align 8, !tbaa !7
  br label %140

140:                                              ; preds = %139
  br label %141

141:                                              ; preds = %140
  br label %142

142:                                              ; preds = %141, %122, %119
  br label %143

143:                                              ; preds = %142, %116
  br label %144

144:                                              ; preds = %143, %12
  %145 = load ptr, ptr %4, align 8, !tbaa !7
  call void @llvm.lifetime.end.p0(i64 1, ptr %5) #9
  call void @llvm.lifetime.end.p0(i64 8, ptr %4) #9
  call void @llvm.lifetime.end.p0(i64 8, ptr %3) #9
  ret ptr %145
}