; Function Attrs: nounwind uwtable
define ptr @H5T__vlen_create(ptr noundef %0) local_unnamed_addr #0 {
  %2 = load i8, ptr @H5T_init_g, align 1, !tbaa !3, !range !7, !noundef !8
  %3 = trunc nuw i8 %2 to i1
  %4 = load i8, ptr @H5_libterm_g, align 1, !range !7
  %5 = trunc nuw i8 %4 to i1
  %6 = xor i1 %5, true
  %7 = select i1 %3, i1 true, i1 %6
  br i1 %7, label %8, label %.thread, !prof !9

8:                                                ; preds = %1
  %9 = tail call ptr @H5T__alloc() #13
  %10 = icmp eq ptr %9, null
  br i1 %10, label %11, label %15

11:                                               ; preds = %8
  %12 = load i64, ptr @H5E_DATATYPE_g, align 8, !tbaa !11
  %13 = load i64, ptr @H5E_CANTALLOC_g, align 8, !tbaa !11
  %14 = tail call i32 (ptr, ptr, i32, i64, i64, ptr, ...) @H5E_printf_stack(ptr noundef nonnull @.str, ptr noundef nonnull @__func__.H5T__vlen_create, i32 noundef 187, i64 noundef %12, i64 noundef %13, ptr noundef nonnull @.str.7) #13
  br label %.thread

15:                                               ; preds = %8
  %16 = getelementptr inbounds nuw i8, ptr %9, i64 40
  %17 = load ptr, ptr %16, align 8, !tbaa !15
  %18 = getelementptr inbounds nuw i8, ptr %17, i64 12
  store i32 9, ptr %18, align 4, !tbaa !26
  %19 = getelementptr inbounds nuw i8, ptr %17, i64 28
  store i8 1, ptr %19, align 4, !tbaa !29
  %20 = tail call ptr @H5T_copy(ptr noundef %0, i32 noundef 1) #13
  %21 = load ptr, ptr %16, align 8, !tbaa !15
  %22 = getelementptr inbounds nuw i8, ptr %21, i64 32
  store ptr %20, ptr %22, align 8, !tbaa !30
  %23 = icmp eq ptr %20, null
  br i1 %23, label %24, label %28

24:                                               ; preds = %15
  %25 = load i64, ptr @H5E_DATATYPE_g, align 8, !tbaa !11
  %26 = load i64, ptr @H5E_CANTCOPY_g, align 8, !tbaa !11
  %27 = tail call i32 (ptr, ptr, i32, i64, i64, ptr, ...) @H5E_printf_stack(ptr noundef nonnull @.str, ptr noundef nonnull @__func__.H5T__vlen_create, i32 noundef 196, i64 noundef %25, i64 noundef %26, ptr noundef nonnull @.str.8) #13
  br label %41

28:                                               ; preds = %15
  %29 = getelementptr inbounds nuw i8, ptr %0, i64 40
  %30 = load ptr, ptr %29, align 8, !tbaa !15
  %31 = getelementptr inbounds nuw i8, ptr %30, i64 24
  %32 = load i32, ptr %31, align 8, !tbaa !31
  %33 = getelementptr inbounds nuw i8, ptr %21, i64 24
  store i32 %32, ptr %33, align 8, !tbaa !31
  %34 = getelementptr inbounds nuw i8, ptr %21, i64 48
  store i32 0, ptr %34, align 8, !tbaa !32
  %35 = tail call i32 @H5T_set_loc(ptr noundef nonnull %9, ptr noundef null, i32 noundef 1) #13
  %36 = icmp slt i32 %35, 0
  br i1 %36, label %37, label %.thread

37:                                               ; preds = %28
  %38 = load i64, ptr @H5E_DATATYPE_g, align 8, !tbaa !11
  %39 = load i64, ptr @H5E_CANTINIT_g, align 8, !tbaa !11
  %40 = tail call i32 (ptr, ptr, i32, i64, i64, ptr, ...) @H5E_printf_stack(ptr noundef nonnull @.str, ptr noundef nonnull @__func__.H5T__vlen_create, i32 noundef 206, i64 noundef %38, i64 noundef %39, ptr noundef nonnull @.str.9) #13
  br label %41

41:                                               ; preds = %24, %37
  %42 = tail call i32 @H5T_close_real(ptr noundef nonnull %9) #13
  %43 = icmp slt i32 %42, 0
  br i1 %43, label %44, label %.thread

44:                                               ; preds = %41
  %45 = load i64, ptr @H5E_DATATYPE_g, align 8, !tbaa !11
  %46 = load i64, ptr @H5E_CANTRELEASE_g, align 8, !tbaa !11
  %47 = tail call i32 (ptr, ptr, i32, i64, i64, ptr, ...) @H5E_printf_stack(ptr noundef nonnull @.str, ptr noundef nonnull @__func__.H5T__vlen_create, i32 noundef 214, i64 noundef %45, i64 noundef %46, ptr noundef nonnull @.str.10) #13
  br label %.thread

.thread:                                          ; preds = %11, %28, %44, %41, %1
  %.0 = phi ptr [ null, %44 ], [ null, %41 ], [ null, %1 ], [ %9, %28 ], [ null, %11 ]
  ret ptr %.0
}